target datalayout = "e-m:e-p270:32:32-p271:32:32-p272:64:64-i64:64-i128:128-f80:128-n8:16:32:64-S128"
target triple = "x86_64-unknown-linux-gnu"

%class.b2Shape = type { ptr, i32, float }
%class.b2PolygonShape = type <{ %class.b2Shape, %struct.b2Vec2, [8 x %struct.b2Vec2], [8 x %struct.b2Vec2], i32, [4 x i8] }>
%struct.b2Vec2 = type { float, float }

; Function Attrs: mustprogress nounwind uwtable
define linkonce_odr hidden void @_ZN6b2Vec27SetZeroEv(ptr noundef nonnull align 4 dereferenceable(8) %this) #1 comdat align 2 {
entry:
  %this.addr = alloca ptr, align 8
  store ptr %this, ptr %this.addr, align 8
  %this1 = load ptr, ptr %this.addr, align 8
  %x = getelementptr inbounds %struct.b2Vec2, ptr %this1, i32 0, i32 0
  store float 0.000000e+00, ptr %x, align 4
  %y = getelementptr inbounds %struct.b2Vec2, ptr %this1, i32 0, i32 1
  store float 0.000000e+00, ptr %y, align 4
  ret void
}

; Function Attrs: mustprogress nounwind uwtable
define linkonce_odr hidden void @_ZN6b2Vec23SetEff(ptr noundef nonnull align 4 dereferenceable(8) %this, float noundef %x_, float noundef %y_) #1 comdat align 2 {
entry:
  %this.addr = alloca ptr, align 8
  %x_.addr = alloca float, align 4
  %y_.addr = alloca float, align 4
  store ptr %this, ptr %this.addr, align 8
  store float %x_, ptr %x_.addr, align 4
  store float %y_, ptr %y_.addr, align 4
  %this1 = load ptr, ptr %this.addr, align 8
  %0 = load float, ptr %x_.addr, align 4
  %x = getelementptr inbounds %struct.b2Vec2, ptr %this1, i32 0, i32 0
  store float %0, ptr %x, align 4
  %1 = load float, ptr %y_.addr, align 4
  %y = getelementptr inbounds %struct.b2Vec2, ptr %this1, i32 0, i32 1
  store float %1, ptr %y, align 4
  ret void
}

; Function Attrs: mustprogress uwtable
define void @_ZN14b2PolygonShape8SetAsBoxEff(ptr noundef nonnull align 8 dereferenceable(156) %this, float noundef %hx, float noundef %hy) #0 align 2 {
entry:
  %this.addr = alloca ptr, align 8
  %hx.addr = alloca float, align 4
  %hy.addr = alloca float, align 4
  store ptr %this, ptr %this.addr, align 8
  store float %hx, ptr %hx.addr, align 4
  store float %hy, ptr %hy.addr, align 4
  %this1 = load ptr, ptr %this.addr, align 8
  %m_count = getelementptr inbounds %class.b2PolygonShape, ptr %this1, i32 0, i32 4
  store i32 4, ptr %m_count, align 8
  %m_vertices = getelementptr inbounds %class.b2PolygonShape, ptr %this1, i32 0, i32 2
  %arrayidx = getelementptr inbounds [8 x %struct.b2Vec2], ptr %m_vertices, i64 0, i64 0
  %0 = load float, ptr %hx.addr, align 4
  %fneg = fneg float %0
  %1 = load float, ptr %hy.addr, align 4
  %fneg2 = fneg float %1
  call void @_ZN6b2Vec23SetEff(ptr noundef nonnull align 4 dereferenceable(8) %arrayidx, float noundef %fneg, float noundef %fneg2)
  %m_vertices3 = getelementptr inbounds %class.b2PolygonShape, ptr %this1, i32 0, i32 2
  %arrayidx4 = getelementptr inbounds [8 x %struct.b2Vec2], ptr %m_vertices3, i64 0, i64 1
  %2 = load float, ptr %hx.addr, align 4
  %3 = load float, ptr %hy.addr, align 4
  %fneg5 = fneg float %3
  call void @_ZN6b2Vec23SetEff(ptr noundef nonnull align 4 dereferenceable(8) %arrayidx4, float noundef %2, float noundef %fneg5)
  %m_vertices6 = getelementptr inbounds %class.b2PolygonShape, ptr %this1, i32 0, i32 2
  %arrayidx7 = getelementptr inbounds [8 x %struct.b2Vec2], ptr %m_vertices6, i64 0, i64 2
  %4 = load float, ptr %hx.addr, align 4
  %5 = load float, ptr %hy.addr, align 4
  call void @_ZN6b2Vec23SetEff(ptr noundef nonnull align 4 dereferenceable(8) %arrayidx7, float noundef %4, float noundef %5)
  %m_vertices8 = getelementptr inbounds %class.b2PolygonShape, ptr %this1, i32 0, i32 2
  %arrayidx9 = getelementptr inbounds [8 x %struct.b2Vec2], ptr %m_vertices8, i64 0, i64 3
  %6 = load float, ptr %hx.addr, align 4
  %fneg10 = fneg float %6
  %7 = load float, ptr %hy.addr, align 4
  call void @_ZN6b2Vec23SetEff(ptr noundef nonnull align 4 dereferenceable(8) %arrayidx9, float noundef %fneg10, float noundef %7)
  %m_normals = getelementptr inbounds %class.b2PolygonShape, ptr %this1, i32 0, i32 3
  %arrayidx11 = getelementptr inbounds [8 x %struct.b2Vec2], ptr %m_normals, i64 0, i64 0
  call void @_ZN6b2Vec23SetEff(ptr noundef nonnull align 4 dereferenceable(8) %arrayidx11, float noundef 0.000000e+00, float noundef -1.000000e+00)
  %m_normals12 = getelementptr inbounds %class.b2PolygonShape, ptr %this1, i32 0, i32 3
  %arrayidx13 = getelementptr inbounds [8 x %struct.b2Vec2], ptr %m_normals12, i64 0, i64 1
  call void @_ZN6b2Vec23SetEff(ptr noundef nonnull align 4 dereferenceable(8) %arrayidx13, float noundef 1.000000e+00, float noundef 0.000000e+00)
  %m_normals14 = getelementptr inbounds %class.b2PolygonShape, ptr %this1, i32 0, i32 3
  %arrayidx15 = getelementptr inbounds [8 x %struct.b2Vec2], ptr %m_normals14, i64 0, i64 2
  call void @_ZN6b2Vec23SetEff(ptr noundef nonnull align 4 dereferenceable(8) %arrayidx15, float noundef 0.000000e+00, float noundef 1.000000e+00)
  %m_normals16 = getelementptr inbounds %class.b2PolygonShape, ptr %this1, i32 0, i32 3
  %arrayidx17 = getelementptr inbounds [8 x %struct.b2Vec2], ptr %m_normals16, i64 0, i64 3
  call void @_ZN6b2Vec23SetEff(ptr noundef nonnull align 4 dereferenceable(8) %arrayidx17, float noundef -1.000000e+00, float noundef 0.000000e+00)
  %m_centroid = getelementptr inbounds %class.b2PolygonShape, ptr %this1, i32 0, i32 1
  call void @_ZN6b2Vec27SetZeroEv(ptr noundef nonnull align 4 dereferenceable(8) %m_centroid)
  ret void
}