; Function Attrs: mustprogress nofree norecurse nosync nounwind willreturn memory(argmem: write) uwtable
define void @_ZN14b2PolygonShape8SetAsBoxEff(ptr nocapture noundef nonnull writeonly align 8 dereferenceable(156) %this, float noundef %hx, float noundef %hy) local_unnamed_addr #0 align 2 {
entry:
  %m_count = getelementptr inbounds i8, ptr %this, i64 152
  store i32 4, ptr %m_count, align 8
  %m_vertices = getelementptr inbounds i8, ptr %this, i64 24
  %fneg = fneg float %hx
  %fneg2 = fneg float %hy
  store float %fneg, ptr %m_vertices, align 8
  %y.i = getelementptr inbounds i8, ptr %this, i64 28
  store float %fneg2, ptr %y.i, align 4
  %arrayidx4 = getelementptr inbounds i8, ptr %this, i64 32
  store float %hx, ptr %arrayidx4, align 8
  %y.i7 = getelementptr inbounds i8, ptr %this, i64 36
  store float %fneg2, ptr %y.i7, align 4
  %arrayidx7 = getelementptr inbounds i8, ptr %this, i64 40
  store float %hx, ptr %arrayidx7, align 8
  %y.i8 = getelementptr inbounds i8, ptr %this, i64 44
  store float %hy, ptr %y.i8, align 4
  %arrayidx9 = getelementptr inbounds i8, ptr %this, i64 48
  store float %fneg, ptr %arrayidx9, align 8
  %y.i9 = getelementptr inbounds i8, ptr %this, i64 52
  store float %hy, ptr %y.i9, align 4
  %m_normals = getelementptr inbounds i8, ptr %this, i64 88
  store <4 x float> <float 0.000000e+00, float -1.000000e+00, float 1.000000e+00, float 0.000000e+00>, ptr %m_normals, align 8
  %arrayidx15 = getelementptr inbounds i8, ptr %this, i64 104
  store <4 x float> <float 0.000000e+00, float 1.000000e+00, float -1.000000e+00, float 0.000000e+00>, ptr %arrayidx15, align 8
  %m_centroid = getelementptr inbounds i8, ptr %this, i64 16
  store <2 x float> zeroinitializer, ptr %m_centroid, align 8
  ret void
}